; ModuleID = '55/43.c'
source_filename = "55/43.c"
target datalayout = "e-m:e-p270:32:32-p271:32:32-p272:64:64-i64:64-f80:128-n8:16:32:64-S128"
target triple = "x86_64-pc-linux-gnu"

@.str = private unnamed_addr constant [7 x i8] c"%d%s%d\00", align 1
@.str.1 = private unnamed_addr constant [3 x i8] c"%c\00", align 1
@.str.2 = private unnamed_addr constant [2 x i8] c"\0A\00", align 1

; Function Attrs: noinline nounwind uwtable
define dso_local i32 @main() #0 {
  %1 = alloca i32, align 4
  %2 = alloca i32, align 4
  %3 = alloca i32, align 4
  %4 = alloca [100 x i8], align 16
  %5 = alloca [100 x i8], align 16
  %6 = alloca i64, align 8
  %7 = alloca i32, align 4
  %8 = alloca i32, align 4
  store i32 0, i32* %1, align 4
  %9 = getelementptr inbounds [100 x i8], [100 x i8]* %4, i64 0, i64 0
  %10 = call i32 (i8*, ...) @__isoc99_scanf(i8* getelementptr inbounds ([7 x i8], [7 x i8]* @.str, i64 0, i64 0), i32* %2, i8* %9, i32* %3)
  store i64 0, i64* %6, align 8
  store i32 0, i32* %7, align 4
  br label %11

11:                                               ; preds = %99, %0
  %12 = load i32, i32* %7, align 4
  %13 = sext i32 %12 to i64
  %14 = getelementptr inbounds [100 x i8], [100 x i8]* %4, i64 0, i64 %13
  %15 = load i8, i8* %14, align 1
  %16 = sext i8 %15 to i32
  %17 = icmp ne i32 %16, 0
  br i1 %17, label %18, label %102

18:                                               ; preds = %11
  %19 = load i32, i32* %7, align 4
  %20 = sext i32 %19 to i64
  %21 = getelementptr inbounds [100 x i8], [100 x i8]* %4, i64 0, i64 %20
  %22 = load i8, i8* %21, align 1
  %23 = sext i8 %22 to i32
  %24 = icmp sge i32 %23, 48
  br i1 %24, label %25, label %44

25:                                               ; preds = %18
  %26 = load i32, i32* %7, align 4
  %27 = sext i32 %26 to i64
  %28 = getelementptr inbounds [100 x i8], [100 x i8]* %4, i64 0, i64 %27
  %29 = load i8, i8* %28, align 1
  %30 = sext i8 %29 to i32
  %31 = icmp sle i32 %30, 57
  br i1 %31, label %32, label %44

32:                                               ; preds = %25
  %33 = load i64, i64* %6, align 8
  %34 = load i32, i32* %2, align 4
  %35 = sext i32 %34 to i64
  %36 = mul nsw i64 %33, %35
  %37 = load i32, i32* %7, align 4
  %38 = sext i32 %37 to i64
  %39 = getelementptr inbounds [100 x i8], [100 x i8]* %4, i64 0, i64 %38
  %40 = load i8, i8* %39, align 1
  %41 = sext i8 %40 to i64
  %42 = add nsw i64 %36, %41
  %43 = sub nsw i64 %42, 48
  store i64 %43, i64* %6, align 8
  br label %44

44:                                               ; preds = %32, %25, %18
  %45 = load i32, i32* %7, align 4
  %46 = sext i32 %45 to i64
  %47 = getelementptr inbounds [100 x i8], [100 x i8]* %4, i64 0, i64 %46
  %48 = load i8, i8* %47, align 1
  %49 = sext i8 %48 to i32
  %50 = icmp sge i32 %49, 97
  br i1 %50, label %51, label %71

51:                                               ; preds = %44
  %52 = load i32, i32* %7, align 4
  %53 = sext i32 %52 to i64
  %54 = getelementptr inbounds [100 x i8], [100 x i8]* %4, i64 0, i64 %53
  %55 = load i8, i8* %54, align 1
  %56 = sext i8 %55 to i32
  %57 = icmp sle i32 %56, 122
  br i1 %57, label %58, label %71

58:                                               ; preds = %51
  %59 = load i64, i64* %6, align 8
  %60 = load i32, i32* %2, align 4
  %61 = sext i32 %60 to i64
  %62 = mul nsw i64 %59, %61
  %63 = load i32, i32* %7, align 4
  %64 = sext i32 %63 to i64
  %65 = getelementptr inbounds [100 x i8], [100 x i8]* %4, i64 0, i64 %64
  %66 = load i8, i8* %65, align 1
  %67 = sext i8 %66 to i64
  %68 = add nsw i64 %62, %67
  %69 = sub nsw i64 %68, 97
  %70 = add nsw i64 %69, 10
  store i64 %70, i64* %6, align 8
  br label %71

71:                                               ; preds = %58, %51, %44
  %72 = load i32, i32* %7, align 4
  %73 = sext i32 %72 to i64
  %74 = getelementptr inbounds [100 x i8], [100 x i8]* %4, i64 0, i64 %73
  %75 = load i8, i8* %74, align 1
  %76 = sext i8 %75 to i32
  %77 = icmp sge i32 %76, 65
  br i1 %77, label %78, label %98

78:                                               ; preds = %71
  %79 = load i32, i32* %7, align 4
  %80 = sext i32 %79 to i64
  %81 = getelementptr inbounds [100 x i8], [100 x i8]* %4, i64 0, i64 %80
  %82 = load i8, i8* %81, align 1
  %83 = sext i8 %82 to i32
  %84 = icmp sle i32 %83, 90
  br i1 %84, label %85, label %98

85:                                               ; preds = %78
  %86 = load i64, i64* %6, align 8
  %87 = load i32, i32* %2, align 4
  %88 = sext i32 %87 to i64
  %89 = mul nsw i64 %86, %88
  %90 = load i32, i32* %7, align 4
  %91 = sext i32 %90 to i64
  %92 = getelementptr inbounds [100 x i8], [100 x i8]* %4, i64 0, i64 %91
  %93 = load i8, i8* %92, align 1
  %94 = sext i8 %93 to i64
  %95 = add nsw i64 %89, %94
  %96 = sub nsw i64 %95, 65
  %97 = add nsw i64 %96, 10
  store i64 %97, i64* %6, align 8
  br label %98

98:                                               ; preds = %85, %78, %71
  br label %99

99:                                               ; preds = %98
  %100 = load i32, i32* %7, align 4
  %101 = add nsw i32 %100, 1
  store i32 %101, i32* %7, align 4
  br label %11

102:                                              ; preds = %11
  store i32 0, i32* %7, align 4
  br label %103

103:                                              ; preds = %138, %102
  %104 = load i64, i64* %6, align 8
  %105 = icmp ne i64 %104, 0
  br i1 %105, label %106, label %141

106:                                              ; preds = %103
  %107 = load i64, i64* %6, align 8
  %108 = load i32, i32* %3, align 4
  %109 = sext i32 %108 to i64
  %110 = srem i64 %107, %109
  %111 = icmp sle i64 %110, 9
  br i1 %111, label %112, label %122

112:                                              ; preds = %106
  %113 = load i64, i64* %6, align 8
  %114 = load i32, i32* %3, align 4
  %115 = sext i32 %114 to i64
  %116 = srem i64 %113, %115
  %117 = add nsw i64 %116, 48
  %118 = trunc i64 %117 to i8
  %119 = load i32, i32* %7, align 4
  %120 = sext i32 %119 to i64
  %121 = getelementptr inbounds [100 x i8], [100 x i8]* %5, i64 0, i64 %120
  store i8 %118, i8* %121, align 1
  br label %133

122:                                              ; preds = %106
  %123 = load i64, i64* %6, align 8
  %124 = load i32, i32* %3, align 4
  %125 = sext i32 %124 to i64
  %126 = srem i64 %123, %125
  %127 = sub nsw i64 %126, 10
  %128 = add nsw i64 %127, 65
  %129 = trunc i64 %128 to i8
  %130 = load i32, i32* %7, align 4
  %131 = sext i32 %130 to i64
  %132 = getelementptr inbounds [100 x i8], [100 x i8]* %5, i64 0, i64 %131
  store i8 %129, i8* %132, align 1
  br label %133

133:                                              ; preds = %122, %112
  %134 = load i64, i64* %6, align 8
  %135 = load i32, i32* %3, align 4
  %136 = sext i32 %135 to i64
  %137 = sdiv i64 %134, %136
  store i64 %137, i64* %6, align 8
  br label %138

138:                                              ; preds = %133
  %139 = load i32, i32* %7, align 4
  %140 = add nsw i32 %139, 1
  store i32 %140, i32* %7, align 4
  br label %103

141:                                              ; preds = %103
  %142 = load i32, i32* %7, align 4
  %143 = sub nsw i32 %142, 1
  store i32 %143, i32* %8, align 4
  br label %144

144:                                              ; preds = %154, %141
  %145 = load i32, i32* %8, align 4
  %146 = icmp sge i32 %145, 0
  br i1 %146, label %147, label %157

147:                                              ; preds = %144
  %148 = load i32, i32* %8, align 4
  %149 = sext i32 %148 to i64
  %150 = getelementptr inbounds [100 x i8], [100 x i8]* %5, i64 0, i64 %149
  %151 = load i8, i8* %150, align 1
  %152 = sext i8 %151 to i32
  %153 = call i32 (i8*, ...) @printf(i8* getelementptr inbounds ([3 x i8], [3 x i8]* @.str.1, i64 0, i64 0), i32 %152)
  br label %154

154:                                              ; preds = %147
  %155 = load i32, i32* %8, align 4
  %156 = add nsw i32 %155, -1
  store i32 %156, i32* %8, align 4
  br label %144

157:                                              ; preds = %144
  %158 = call i32 (i8*, ...) @printf(i8* getelementptr inbounds ([2 x i8], [2 x i8]* @.str.2, i64 0, i64 0))
  ret i32 0
}

declare dso_local i32 @__isoc99_scanf(i8*, ...) #1

declare dso_local i32 @printf(i8*, ...) #1


!llvm.module.flags = !{!0}
!llvm.ident = !{!1}

!0 = !{i32 1, !"wchar_size", i32 4}
!1 = !{!"clang version 10.0.0-4ubuntu1 "}
